Certificate:
    Data:
        Version: 1 (0x0)
        Serial Number: 2 (0x2)
    Signature Algorithm: sha256WithRSAEncryption
        Issuer: O=Municipalidad de Lavalle, OU=CA Sistemas/emailAddress=sistemas@lavalle.gob.ar, L=Lavalle, ST=Mendoza, C=AR, CN=CA Municipalidad Lavalle
        Validity
            Not Before: May 11 15:26:16 2017 GMT
            Not After : May 11 15:26:16 2018 GMT
        Subject: C=AR, ST=Mendoza, O=Municipalidad de Lavalle, OU=Expediente Digital, CN=192.168.1.149
        Subject Public Key Info:
            Public Key Algorithm: rsaEncryption
                Public-Key: (2048 bit)
                Modulus:
                    00:a7:15:48:ec:ce:a8:b7:fe:3a:12:56:01:e3:5d:
                    8f:0f:49:b2:69:87:57:7a:4d:6b:e6:ed:1a:b2:75:
                    fd:37:8a:e4:93:d4:8a:ff:c9:70:b6:e7:bd:93:6a:
                    b5:d1:20:2d:68:a1:07:c7:fa:40:0b:33:ae:44:6a:
                    97:d1:81:c5:7e:85:c7:4f:18:1f:75:84:f5:d9:01:
                    5e:ee:81:72:5d:67:9c:ce:6f:e6:17:88:db:7d:37:
                    6f:d8:e3:cd:d0:65:75:3c:e2:c3:6b:eb:91:db:8d:
                    20:10:10:ec:9d:23:64:9f:37:6d:c9:46:d4:6e:2f:
                    19:6d:ef:8a:eb:0c:81:56:32:1d:ce:a4:0a:7f:b8:
                    f3:b4:d6:89:70:d7:71:f2:59:0f:1e:e0:f9:73:72:
                    a1:d1:38:73:f1:5e:07:48:6b:0c:bf:47:cf:ca:38:
                    ed:01:c3:59:9f:bf:ea:42:24:d2:ba:6a:d8:48:18:
                    60:e2:1d:22:8c:c5:a1:f9:56:fc:b0:28:c2:a7:8b:
                    51:04:3b:68:8e:c1:ae:72:22:a9:82:f6:44:0a:28:
                    bc:52:ce:07:4c:4f:cd:a2:3f:cf:6f:84:f2:f3:96:
                    54:20:8e:23:6c:96:a8:cd:15:01:8d:72:6f:ff:15:
                    d1:1a:f2:7c:40:95:4e:b5:f5:ca:50:2b:eb:de:d9:
                    28:e1
                Exponent: 65537 (0x10001)
        X509v3 extensions:
            X509v3 Basic Constraints: 
                CA:FALSE
            X509v3 Subject Key Identifier: 
                67:D3:01:A9:E8:44:68:D7:F4:31:CC:0F:43:1D:99:F5:41:C0:A0:FB
            X509v3 Subject Alternative Name: 
                DNS:192.168.1.149, DNS:192.168.1.149
    Signature Algorithm: sha256WithRSAEncryption
         9f:50:92:f5:ff:78:38:31:ea:d5:e7:52:9e:16:ad:a2:da:b5:
         94:2b:cf:c9:2f:4a:20:63:f2:66:eb:d1:67:03:ce:1a:8a:c5:
         75:a3:5f:2a:75:cf:70:db:d1:01:16:5b:78:02:12:e5:50:88:
         97:11:6a:4d:ad:ff:f3:53:24:7a:18:7b:18:62:77:3a:84:59:
         86:7c:3e:97:b6:e3:a5:19:c8:0c:6e:5d:c0:8e:d5:a4:97:66:
         9b:2e:e1:d9:8a:51:c8:1b:f4:6d:73:61:9b:67:b8:9e:90:9c:
         43:e2:9d:59:ee:a0:26:28:a4:1a:a6:c2:78:cd:ad:49:65:27:
         d4:4c:28:1d:49:33:03:0f:b7:86:3d:7d:48:d6:2b:87:a4:e5:
         7b:be:62:af:5d:39:83:e9:28:0a:2e:23:af:d0:53:ed:52:db:
         58:fe:e8:53:96:d8:6d:40:ba:db:a9:d8:6f:16:c3:7c:b8:a4:
         07:07:e1:d3:61:b6:15:5b:e2:63:32:4d:ad:57:e8:3b:99:a2:
         fd:49:58:d4:ba:97:20:82:6f:0f:fb:ec:13:49:c5:d6:45:b0:
         52:b7:d2:05:02:ab:67:bf:85:fb:35:0c:86:84:97:b9:dc:ee:
         cc:3f:3d:b5:28:c2:a8:98:8d:74:b7:bd:09:b7:07:a4:85:28:
         58:51:8d:b6:82:8f:eb:b0:ad:e7:b2:e4:c7:7c:ed:7d:90:0d:
         a3:e1:06:ca:ba:31:2c:b8:0f:5f:ee:30:90:a8:53:1e:c3:ef:
         20:8d:c9:c8:93:e9:86:62:65:ba:f9:6c:6f:8e:2c:3e:6c:63:
         93:4f:13:a0:c2:62:e6:6b:32:78:c6:5c:c3:4a:f2:82:27:2e:
         eb:38:c5:fe:3e:7f:77:51:01:df:9a:bb:07:d4:0d:1a:7e:f5:
         48:51:68:2f:02:16:99:9d:65:20:b3:ad:1b:02:ea:0f:60:39:
         35:a9:33:9b:83:39:81:27:ea:f1:43:ae:7f:ec:29:3d:5f:f9:
         e0:99:80:6a:a7:26:b6:57:83:ea:55:cb:06:94:db:dd:45:01:
         21:5b:c5:7f:9f:fd:0d:19:fb:01:b0:7b:2e:25:17:88:54:87:
         af:96:be:6e:46:32:28:d5:77:5b:79:b6:d9:22:96:ac:8e:d3:
         31:c1:fb:40:49:6b:21:87:a0:db:32:f1:53:cf:bb:d7:a9:0c:
         17:80:d5:7a:bb:47:38:17:2e:6a:b2:7d:00:ab:9c:dc:97:06:
         64:b8:2d:9e:9e:3d:3d:32:65:87:0e:39:5a:d5:7e:f4:d1:f8:
         af:b9:bc:7a:62:98:ff:41:f6:26:f4:6f:d5:f1:4c:38:92:94:
         4c:15:f9:d6:9f:b7:6b:e4
-----BEGIN CERTIFICATE-----
MIIFIDCCAwgCAQIwDQYJKoZIhvcNAQELBQAwgbUxITAfBgNVBAoTGE11bmljaXBh
bGlkYWQgZGUgTGF2YWxsZTEUMBIGA1UECxMLQ0EgU2lzdGVtYXMxJjAkBgkqhkiG
9w0BCQEWF3Npc3RlbWFzQGxhdmFsbGUuZ29iLmFyMRAwDgYDVQQHEwdMYXZhbGxl
MRAwDgYDVQQIEwdNZW5kb3phMQswCQYDVQQGEwJBUjEhMB8GA1UEAxMYQ0EgTXVu
aWNpcGFsaWRhZCBMYXZhbGxlMB4XDTE3MDUxMTE1MjYxNloXDTE4MDUxMTE1MjYx
NlowgYQxCzAJBgNVBAYTAkFSMRAwDgYDVQQIEwdNZW5kb3phMSEwHwYDVQQKExhN
dW5pY2lwYWxpZGFkIGRlIExhdmFsbGUxGzAZBgNVBAsTEkV4cGVkaWVudGUgRGln
aXRhbDEjMCEGA1UEAxMaZXhwZWRpZW50ZXMubGF2YWxsZS5nb2IuYXIwggEiMA0G
CSqGSIb3DQEBAQUAA4IBDwAwggEKAoIBAQCnFUjszqi3/joSVgHjXY8PSbJph1d6
TWvm7Rqydf03iuST1Ir/yXC2572TarXRIC1ooQfH+kALM65EapfRgcV+hcdPGB91
hPXZAV7ugXJdZ5zOb+YXiNt9N2/Y483QZXU84sNr65HbjSAQEOydI2SfN23JRtRu
Lxlt74rrDIFWMh3OpAp/uPO01olw13HyWQ8e4PlzcqHROHPxXgdIawy/R8/KOO0B
w1mfv+pCJNK6athIGGDiHSKMxaH5VvywKMKni1EEO2iOwa5yIqmC9kQKKLxSzgdM
T82iP89vhPLzllQgjiNslqjNFQGNcm//FdEa8nxAlU619cpQK+ve2SjhAgMBAAGj
bzBtMAkGA1UdEwQCMAAwHQYDVR0OBBYEFGfTAanoRGjX9DHMD0MdmfVBwKD7MEEG
A1UdEQQ6MDiCGmV4cGVkaWVudGVzLmxhdmFsbGUuZ29iLmFyghpleHBlZGllbnRl
cy5sYXZhbGxlLmdvdi5hcjANBgkqhkiG9w0BAQsFAAOCAgEAn1CS9f94ODHq1edS
nhatotq1lCvPyS9KIGPyZuvRZwPOGorFdaNfKnXPcNvRARZbeAIS5VCIlxFqTa3/
81Mkehh7GGJ3OoRZhnw+l7bjpRnIDG5dwI7VpJdmmy7h2YpRyBv0bXNhm2e4npCc
Q+KdWe6gJiikGqbCeM2tSWUn1EwoHUkzAw+3hj19SNYrh6Tle75ir105g+koCi4j
r9BT7VLbWP7oU5bYbUC626nYbxbDfLikBwfh02G2FVviYzJNrVfoO5mi/UlY1LqX
IIJvD/vsE0nF1kWwUrfSBQKrZ7+F+zUMhoSXudzuzD89tSjCqJiNdLe9CbcHpIUo
WFGNtoKP67Ct57Lkx3ztfZANo+EGyroxLLgPX+4wkKhTHsPvII3JyJPphmJluvls
b44sPmxjk08ToMJi5msyeMZcw0rygicu6zjF/j5/d1EB35q7B9QNGn71SFFoLwIW
mZ1lILOtGwLqD2A5Nakzm4M5gSfq8UOuf+wpPV/54JmAaqcmtleD6lXLBpTb3UUB
IVvFf5/9DRn7AbB7LiUXiFSHr5a+bkYyKNV3W3m22SKWrI7TMcH7QElrIYeg2zLx
U8+716kMF4DVertHOBcuarJ9AKuc3JcGZLgtnp49PTJlhw45WtV+9NH4r7m8emKY
/0H2JvRv1fFMOJKUTBX51p+3a+Q=
-----END CERTIFICATE-----
